#include <math.h>
#include <stdio.h>
#include <stdlib.h>
#include <string.h>

int main()
{
	int n,i,temp=0,sum=0,ans=0;
	scanf("%d",&n);
	for(i=1;i<=n;i++)
	{
		temp=i*i;
		sum+=temp;
	}
	for(i=1;i<=n;i++)
		if(i%7==0||i/10==7||i%10==7)
			ans+=i*i;
	sum=sum-ans;
	printf("%d",sum);
	return 0;
}