; ModuleID = '30/99.c'
source_filename = "30/99.c"
target datalayout = "e-m:e-p270:32:32-p271:32:32-p272:64:64-i64:64-f80:128-n8:16:32:64-S128"
target triple = "x86_64-pc-linux-gnu"

@.str = private unnamed_addr constant [3 x i8] c"%d\00", align 1

; Function Attrs: noinline nounwind uwtable
define dso_local i32 @main() #0 {
  %1 = alloca i32, align 4
  %2 = alloca i32, align 4
  %3 = alloca i32, align 4
  %4 = alloca i32, align 4
  %5 = alloca i32, align 4
  %6 = alloca i32, align 4
  store i32 0, i32* %1, align 4
  store i32 0, i32* %4, align 4
  store i32 0, i32* %5, align 4
  store i32 0, i32* %6, align 4
  %7 = call i32 (i8*, ...) @__isoc99_scanf(i8* getelementptr inbounds ([3 x i8], [3 x i8]* @.str, i64 0, i64 0), i32* %2)
  store i32 1, i32* %3, align 4
  br label %8

8:                                                ; preds = %19, %0
  %9 = load i32, i32* %3, align 4
  %10 = load i32, i32* %2, align 4
  %11 = icmp sle i32 %9, %10
  br i1 %11, label %12, label %22

12:                                               ; preds = %8
  %13 = load i32, i32* %3, align 4
  %14 = load i32, i32* %3, align 4
  %15 = mul nsw i32 %13, %14
  store i32 %15, i32* %4, align 4
  %16 = load i32, i32* %4, align 4
  %17 = load i32, i32* %5, align 4
  %18 = add nsw i32 %17, %16
  store i32 %18, i32* %5, align 4
  br label %19

19:                                               ; preds = %12
  %20 = load i32, i32* %3, align 4
  %21 = add nsw i32 %20, 1
  store i32 %21, i32* %3, align 4
  br label %8

22:                                               ; preds = %8
  store i32 1, i32* %3, align 4
  br label %23

23:                                               ; preds = %46, %22
  %24 = load i32, i32* %3, align 4
  %25 = load i32, i32* %2, align 4
  %26 = icmp sle i32 %24, %25
  br i1 %26, label %27, label %49

27:                                               ; preds = %23
  %28 = load i32, i32* %3, align 4
  %29 = srem i32 %28, 7
  %30 = icmp eq i32 %29, 0
  br i1 %30, label %39, label %31

31:                                               ; preds = %27
  %32 = load i32, i32* %3, align 4
  %33 = sdiv i32 %32, 10
  %34 = icmp eq i32 %33, 7
  br i1 %34, label %39, label %35

35:                                               ; preds = %31
  %36 = load i32, i32* %3, align 4
  %37 = srem i32 %36, 10
  %38 = icmp eq i32 %37, 7
  br i1 %38, label %39, label %45

39:                                               ; preds = %35, %31, %27
  %40 = load i32, i32* %3, align 4
  %41 = load i32, i32* %3, align 4
  %42 = mul nsw i32 %40, %41
  %43 = load i32, i32* %6, align 4
  %44 = add nsw i32 %43, %42
  store i32 %44, i32* %6, align 4
  br label %45

45:                                               ; preds = %39, %35
  br label %46

46:                                               ; preds = %45
  %47 = load i32, i32* %3, align 4
  %48 = add nsw i32 %47, 1
  store i32 %48, i32* %3, align 4
  br label %23

49:                                               ; preds = %23
  %50 = load i32, i32* %5, align 4
  %51 = load i32, i32* %6, align 4
  %52 = sub nsw i32 %50, %51
  store i32 %52, i32* %5, align 4
  %53 = load i32, i32* %5, align 4
  %54 = call i32 (i8*, ...) @printf(i8* getelementptr inbounds ([3 x i8], [3 x i8]* @.str, i64 0, i64 0), i32 %53)
  ret i32 0
}

declare dso_local i32 @__isoc99_scanf(i8*, ...) #1

declare dso_local i32 @printf(i8*, ...) #1


!llvm.module.flags = !{!0}
!llvm.ident = !{!1}

!0 = !{i32 1, !"wchar_size", i32 4}
!1 = !{!"clang version 10.0.0-4ubuntu1 "}
